target datalayout = "e-m:e-p270:32:32-p271:32:32-p272:64:64-i64:64-i128:128-f80:128-n8:16:32:64-S128"
target triple = "x86_64-pc-linux-gnu"

%struct.CPpmd7 = type { ptr, ptr, ptr, i32, i32, i32, i32, i32, i32, i32, i32, i32, ptr, ptr, ptr, ptr, ptr, i32, [38 x i8], [128 x i8], [38 x i32], [256 x i8], [256 x i8], [256 x i8], %struct.CPpmd_See, [25 x [16 x %struct.CPpmd_See]], [128 x [64 x i16]] }
%struct.CPpmd_See = type { i16, i8, i8 }
%struct.ISzAlloc = type { ptr, ptr }

; Function Attrs: nounwind uwtable
define void @Ppmd7_Free(ptr noundef %0, ptr noundef %1) #0 {
  %3 = alloca ptr, align 8
  %4 = alloca ptr, align 8
  store ptr %0, ptr %3, align 8, !tbaa !3
  store ptr %1, ptr %4, align 8, !tbaa !3
  %5 = load ptr, ptr %4, align 8, !tbaa !3
  %6 = getelementptr inbounds nuw %struct.ISzAlloc, ptr %5, i32 0, i32 1
  %7 = load ptr, ptr %6, align 8, !tbaa !16
  %8 = load ptr, ptr %4, align 8, !tbaa !3
  %9 = load ptr, ptr %3, align 8, !tbaa !3
  %10 = getelementptr inbounds nuw %struct.CPpmd7, ptr %9, i32 0, i32 12
  %11 = load ptr, ptr %10, align 8, !tbaa !7
  call void %7(ptr noundef %8, ptr noundef %11)
  %12 = load ptr, ptr %3, align 8, !tbaa !3
  %13 = getelementptr inbounds nuw %struct.CPpmd7, ptr %12, i32 0, i32 10
  store i32 0, ptr %13, align 4, !tbaa !18
  %14 = load ptr, ptr %3, align 8, !tbaa !3
  %15 = getelementptr inbounds nuw %struct.CPpmd7, ptr %14, i32 0, i32 12
  store ptr null, ptr %15, align 8, !tbaa !7
  ret void
}

; Function Attrs: nounwind uwtable
define i32 @Ppmd7_Alloc(ptr noundef %0, i32 noundef %1, ptr noundef %2) #0 {
  %4 = alloca i32, align 4
  %5 = alloca ptr, align 8
  %6 = alloca i32, align 4
  %7 = alloca ptr, align 8
  store ptr %0, ptr %5, align 8, !tbaa !3
  store i32 %1, ptr %6, align 4, !tbaa !14
  store ptr %2, ptr %7, align 8, !tbaa !3
  %8 = load ptr, ptr %5, align 8, !tbaa !3
  %9 = getelementptr inbounds nuw %struct.CPpmd7, ptr %8, i32 0, i32 12
  %10 = load ptr, ptr %9, align 8, !tbaa !7
  %11 = icmp eq ptr %10, null
  br i1 %11, label %18, label %12

12:                                               ; preds = %3
  %13 = load ptr, ptr %5, align 8, !tbaa !3
  %14 = getelementptr inbounds nuw %struct.CPpmd7, ptr %13, i32 0, i32 10
  %15 = load i32, ptr %14, align 4, !tbaa !18
  %16 = load i32, ptr %6, align 4, !tbaa !14
  %17 = icmp ne i32 %15, %16
  br i1 %17, label %18, label %46

18:                                               ; preds = %12, %3
  %19 = load ptr, ptr %5, align 8, !tbaa !3
  %20 = load ptr, ptr %7, align 8, !tbaa !3
  call void @Ppmd7_Free(ptr noundef %19, ptr noundef %20)
  %21 = load i32, ptr %6, align 4, !tbaa !14
  %22 = and i32 %21, 3
  %23 = sub i32 4, %22
  %24 = load ptr, ptr %5, align 8, !tbaa !3
  %25 = getelementptr inbounds nuw %struct.CPpmd7, ptr %24, i32 0, i32 17
  store i32 %23, ptr %25, align 8, !tbaa !19
  %26 = load ptr, ptr %7, align 8, !tbaa !3
  %27 = getelementptr inbounds nuw %struct.ISzAlloc, ptr %26, i32 0, i32 0
  %28 = load ptr, ptr %27, align 8, !tbaa !20
  %29 = load ptr, ptr %7, align 8, !tbaa !3
  %30 = load ptr, ptr %5, align 8, !tbaa !3
  %31 = getelementptr inbounds nuw %struct.CPpmd7, ptr %30, i32 0, i32 17
  %32 = load i32, ptr %31, align 8, !tbaa !19
  %33 = load i32, ptr %6, align 4, !tbaa !14
  %34 = add i32 %32, %33
  %35 = add i32 %34, 12
  %36 = zext i32 %35 to i64
  %37 = call ptr %28(ptr noundef %29, i64 noundef %36)
  %38 = load ptr, ptr %5, align 8, !tbaa !3
  %39 = getelementptr inbounds nuw %struct.CPpmd7, ptr %38, i32 0, i32 12
  store ptr %37, ptr %39, align 8, !tbaa !7
  %40 = icmp eq ptr %37, null
  br i1 %40, label %41, label %42

41:                                               ; preds = %18
  store i32 0, ptr %4, align 4
  br label %47

42:                                               ; preds = %18
  %43 = load i32, ptr %6, align 4, !tbaa !14
  %44 = load ptr, ptr %5, align 8, !tbaa !3
  %45 = getelementptr inbounds nuw %struct.CPpmd7, ptr %44, i32 0, i32 10
  store i32 %43, ptr %45, align 4, !tbaa !18
  br label %46

46:                                               ; preds = %42, %12
  store i32 1, ptr %4, align 4
  br label %47

47:                                               ; preds = %46, %41
  %48 = load i32, ptr %4, align 4
  ret i32 %48
}