; Function Attrs: nounwind uwtable
define range(i32 0, 2) i32 @Ppmd7_Alloc(ptr noundef captures(none) %0, i32 noundef %1, ptr noundef %2) local_unnamed_addr #3 {
  %4 = getelementptr inbounds nuw i8, ptr %0, i64 64
  %5 = load ptr, ptr %4, align 8, !tbaa !3
  %6 = icmp eq ptr %5, null
  br i1 %6, label %10, label %7

7:                                                ; preds = %3
  %8 = getelementptr inbounds nuw i8, ptr %0, i64 52
  %9 = load i32, ptr %8, align 4, !tbaa !16
  %.not = icmp eq i32 %9, %1
  br i1 %.not, label %24, label %10

10:                                               ; preds = %7, %3
  %11 = getelementptr inbounds nuw i8, ptr %2, i64 8
  %12 = load ptr, ptr %11, align 8, !tbaa !14
  tail call void %12(ptr noundef %2, ptr noundef %5) #9
  %13 = getelementptr inbounds nuw i8, ptr %0, i64 52
  store i32 0, ptr %13, align 4, !tbaa !16
  store ptr null, ptr %4, align 8, !tbaa !3
  %14 = and i32 %1, 3
  %15 = sub nuw nsw i32 4, %14
  %16 = getelementptr inbounds nuw i8, ptr %0, i64 104
  store i32 %15, ptr %16, align 8, !tbaa !17
  %17 = load ptr, ptr %2, align 8, !tbaa !18
  %18 = and i32 %1, -4
  %19 = add i32 %18, 16
  %20 = zext i32 %19 to i64
  %21 = tail call ptr %17(ptr noundef nonnull %2, i64 noundef %20) #9
  store ptr %21, ptr %4, align 8, !tbaa !3
  %22 = icmp eq ptr %21, null
  br i1 %22, label %24, label %23

23:                                               ; preds = %10
  store i32 %1, ptr %13, align 4, !tbaa !16
  br label %24

24:                                               ; preds = %7, %23, %10
  %.0 = phi i32 [ 0, %10 ], [ 1, %23 ], [ 1, %7 ]
  ret i32 %.0
}